target datalayout = "e-m:e-p270:32:32-p271:32:32-p272:64:64-i64:64-i128:128-f80:128-n8:16:32:64-S128"
target triple = "x86_64-pc-linux-gnu"

@H5T_init_g = external global i8, align 1
@H5_libterm_g = external global i8, align 1
@.str = private unnamed_addr constant [100 x i8] c"generated/home/dtcxzyw/WorkSpace/Projects/compilers/llvm-opt-benchmark/bench/hdf5/hdf5/src/H5Tref.c\00", align 1
@H5E_DATATYPE_g = external global i64, align 8
@H5E_CANTGET_g = external global i64, align 8
@__func__.H5T__ref_disk_read = private unnamed_addr constant [19 x i8] c"H5T__ref_disk_read\00", align 1
@.str.29 = private unnamed_addr constant [19 x i8] c"unable to get blob\00", align 1

; Function Attrs: nounwind uwtable
define internal i32 @H5T__ref_disk_read(ptr noundef %0, ptr noundef %1, i64 noundef %2, ptr noundef %3, ptr noundef %4, i64 noundef %5) #0 {
  %7 = alloca ptr, align 8
  %8 = alloca ptr, align 8
  %9 = alloca i64, align 8
  %10 = alloca ptr, align 8
  %11 = alloca ptr, align 8
  %12 = alloca i64, align 8
  %13 = alloca ptr, align 8
  %14 = alloca ptr, align 8
  %15 = alloca i64, align 8
  %16 = alloca i32, align 4
  %17 = alloca i8, align 1
  store ptr %0, ptr %7, align 8, !tbaa !8
  store ptr %1, ptr %8, align 8, !tbaa !39
  store i64 %2, ptr %9, align 8, !tbaa !28
  store ptr %3, ptr %10, align 8, !tbaa !8
  store ptr %4, ptr %11, align 8, !tbaa !39
  store i64 %5, ptr %12, align 8, !tbaa !28
  call void @llvm.lifetime.start.p0(i64 8, ptr %13) #8
  %18 = load ptr, ptr %8, align 8, !tbaa !39
  store ptr %18, ptr %13, align 8, !tbaa !44
  call void @llvm.lifetime.start.p0(i64 8, ptr %14) #8
  %19 = load ptr, ptr %11, align 8, !tbaa !39
  store ptr %19, ptr %14, align 8, !tbaa !44
  call void @llvm.lifetime.start.p0(i64 8, ptr %15) #8
  %20 = load i64, ptr %12, align 8, !tbaa !28
  store i64 %20, ptr %15, align 8, !tbaa !28
  call void @llvm.lifetime.start.p0(i64 4, ptr %16) #8
  store i32 0, ptr %16, align 4, !tbaa !10
  call void @llvm.lifetime.start.p0(i64 1, ptr %17) #8
  store i8 0, ptr %17, align 1, !tbaa !12
  %21 = load i8, ptr @H5T_init_g, align 1, !tbaa !12, !range !14, !noundef !15
  %22 = trunc i8 %21 to i1
  br i1 %22, label %27, label %23

23:                                               ; preds = %6
  %24 = load i8, ptr @H5_libterm_g, align 1, !tbaa !12, !range !14, !noundef !15
  %25 = trunc i8 %24 to i1
  %26 = xor i1 %25, true
  br label %27

27:                                               ; preds = %23, %6
  %28 = phi i1 [ true, %6 ], [ %26, %23 ]
  %29 = xor i1 %28, true
  %30 = xor i1 %29, true
  %31 = zext i1 %30 to i32
  %32 = sext i32 %31 to i64
  %33 = call i64 @llvm.expect.i64(i64 %32, i64 1)
  %34 = icmp ne i64 %33, 0
  br i1 %34, label %35, label %76

35:                                               ; preds = %27
  br label %36

36:                                               ; preds = %35
  br label %37

37:                                               ; preds = %36
  br label %38

38:                                               ; preds = %37
  %39 = load ptr, ptr %14, align 8, !tbaa !44
  %40 = load ptr, ptr %13, align 8, !tbaa !44
  call void @llvm.memcpy.p0.p0.i64(ptr align 1 %39, ptr align 1 %40, i64 2, i1 false)
  %41 = load ptr, ptr %13, align 8, !tbaa !44
  %42 = getelementptr inbounds nuw i8, ptr %41, i64 2
  store ptr %42, ptr %13, align 8, !tbaa !44
  %43 = load ptr, ptr %14, align 8, !tbaa !44
  %44 = getelementptr inbounds nuw i8, ptr %43, i64 2
  store ptr %44, ptr %14, align 8, !tbaa !44
  %45 = load i64, ptr %15, align 8, !tbaa !28
  %46 = sub i64 %45, 2
  store i64 %46, ptr %15, align 8, !tbaa !28
  %47 = load ptr, ptr %13, align 8, !tbaa !44
  %48 = getelementptr inbounds nuw i8, ptr %47, i64 4
  store ptr %48, ptr %13, align 8, !tbaa !44
  %49 = load ptr, ptr %7, align 8, !tbaa !8
  %50 = load ptr, ptr %13, align 8, !tbaa !44
  %51 = load ptr, ptr %14, align 8, !tbaa !44
  %52 = load i64, ptr %15, align 8, !tbaa !28
  %53 = call i32 @H5VL_blob_get(ptr noundef %49, ptr noundef %50, ptr noundef %51, i64 noundef %52, ptr noundef null)
  %54 = icmp slt i32 %53, 0
  br i1 %54, label %55, label %74

55:                                               ; preds = %38
  br label %56

56:                                               ; preds = %55
  br label %57

57:                                               ; preds = %56
  br label %58

58:                                               ; preds = %57
  %59 = load i64, ptr @H5E_DATATYPE_g, align 8, !tbaa !28
  %60 = load i64, ptr @H5E_CANTGET_g, align 8, !tbaa !28
  %61 = call i32 (ptr, ptr, i32, i64, i64, ptr, ...) @H5E_printf_stack(ptr noundef @.str, ptr noundef @__func__.H5T__ref_disk_read, i32 noundef 946, i64 noundef %59, i64 noundef %60, ptr noundef @.str.29)
  br label %62

62:                                               ; preds = %58
  br label %63

63:                                               ; preds = %62
  store i8 1, ptr %17, align 1, !tbaa !12
  %64 = load i8, ptr %17, align 1, !tbaa !12, !range !14, !noundef !15
  %65 = trunc i8 %64 to i1
  %66 = zext i1 %65 to i8
  store i8 %66, ptr %17, align 1, !tbaa !12
  br label %67

67:                                               ; preds = %63
  br label %68

68:                                               ; preds = %67
  br label %69

69:                                               ; preds = %68
  store i32 -1, ptr %16, align 4, !tbaa !10
  br label %75

70:                                               ; No predecessors!
  br label %71

71:                                               ; preds = %70
  br label %72

72:                                               ; preds = %71
  br label %73

73:                                               ; preds = %72
  br label %74

74:                                               ; preds = %73, %38
  br label %75

75:                                               ; preds = %74, %69
  br label %76

76:                                               ; preds = %75, %27
  %77 = load i32, ptr %16, align 4, !tbaa !10
  call void @llvm.lifetime.end.p0(i64 1, ptr %17) #8
  call void @llvm.lifetime.end.p0(i64 4, ptr %16) #8
  call void @llvm.lifetime.end.p0(i64 8, ptr %15) #8
  call void @llvm.lifetime.end.p0(i64 8, ptr %14) #8
  call void @llvm.lifetime.end.p0(i64 8, ptr %13) #8
  ret i32 %77
}