; Function Attrs: nounwind uwtable
define internal range(i32 -1, 1) i32 @H5T__ref_disk_read(ptr noundef %0, ptr noundef %1, i64 %2, ptr readnone captures(none) %3, ptr noundef %4, i64 noundef %5) #0 {
  %7 = load i8, ptr @H5T_init_g, align 1, !tbaa !3, !range !7, !noundef !8
  %8 = trunc nuw i8 %7 to i1
  %9 = load i8, ptr @H5_libterm_g, align 1, !range !7
  %10 = trunc nuw i8 %9 to i1
  %11 = xor i1 %10, true
  %12 = select i1 %8, i1 true, i1 %11
  br i1 %12, label %13, label %24, !prof !9

13:                                               ; preds = %6
  %14 = load i16, ptr %1, align 1
  store i16 %14, ptr %4, align 1
  %15 = getelementptr inbounds nuw i8, ptr %4, i64 2
  %16 = add i64 %5, -2
  %17 = getelementptr inbounds nuw i8, ptr %1, i64 6
  %18 = tail call i32 @H5VL_blob_get(ptr noundef %0, ptr noundef nonnull %17, ptr noundef nonnull %15, i64 noundef %16, ptr noundef null) #11
  %19 = icmp slt i32 %18, 0
  br i1 %19, label %20, label %24

20:                                               ; preds = %13
  %21 = load i64, ptr @H5E_DATATYPE_g, align 8, !tbaa !26
  %22 = load i64, ptr @H5E_CANTGET_g, align 8, !tbaa !26
  %23 = tail call i32 (ptr, ptr, i32, i64, i64, ptr, ...) @H5E_printf_stack(ptr noundef nonnull @.str, ptr noundef nonnull @__func__.H5T__ref_disk_read, i32 noundef 946, i64 noundef %21, i64 noundef %22, ptr noundef nonnull @.str.29) #11
  br label %24

24:                                               ; preds = %20, %13, %6
  %.0 = phi i32 [ -1, %20 ], [ 0, %13 ], [ 0, %6 ]
  ret i32 %.0
}